(lp1
(I0
(dp2
S'position'
p3
(dp4
S'neck_r'
p5
F-0
sS'neck_p'
p6
F0
sS'body_z'
p7
F2.9693756103515625
sS'body_y'
p8
F1.5308070182800293
sS'body_x'
p9
F5.8471899032592773
sS'body_h'
p10
F-24
sS'body_r'
p11
F0
sS'body_p'
p12
F0
sS'in_right_hand'
p13
S''
sS'in_left_hand'
p14
S''
sS'neck_h'
p15
F-0
ssS'objects'
p16
(dp17
S'toaster_with_bread'
p18
(dp19
S'distance'
p20
F10.800105094909668
sS'y_pos'
p21
F0.60576969385147095
sS'orientation'
p22
F-156.0029296875
sS'x_pos'
p23
F-0.052884507924318314
sS'area'
p24
F1.6030047886084198
ssS'piece_of_toast'
p25
(dp26
S'distance'
p27
F9.4619922637939453
sS'y_pos'
p28
F0.016724634915590286
sS'orientation'
p29
F-156.0029296875
sS'x_pos'
p30
F-0.10053817555308342
sS'area'
p31
F1.3187500009221031
sssS'vision'
p32
(lp33
sS'language'
p34
(lp35
stp36
a(I0
(dp37
S'position'
p38
(dp39
S'neck_r'
p40
F-0
sS'neck_p'
p41
F0
sS'body_z'
p42
F2.9693756103515625
sS'body_y'
p43
F1.5308070182800293
sS'body_x'
p44
F5.8471899032592773
sS'body_h'
p45
F-24
sS'body_r'
p46
F0
sS'body_p'
p47
F0
sS'in_right_hand'
p48
S''
sS'in_left_hand'
p49
S''
sS'neck_h'
p50
F-0
ssS'objects'
p51
(dp52
S'toaster_with_bread'
p53
(dp54
S'distance'
p55
F10.800105094909668
sS'y_pos'
p56
F0.60576969385147095
sS'orientation'
p57
F-156.0029296875
sS'x_pos'
p58
F-0.052884507924318314
sS'area'
p59
F1.6030047886084198
ssS'piece_of_toast'
p60
(dp61
S'distance'
p62
F9.4619922637939453
sS'y_pos'
p63
F0.016724634915590286
sS'orientation'
p64
F-156.0029296875
sS'x_pos'
p65
F-0.10053817555308342
sS'area'
p66
F1.3187500009221031
sssS'vision'
p67
(lp68
sS'language'
p69
(lp70
stp71
a(I0
(dp72
S'position'
p73
(dp74
S'neck_r'
p75
F-0
sS'neck_p'
p76
F0
sS'body_z'
p77
F2.9693756103515625
sS'body_y'
p78
F1.5308070182800293
sS'body_x'
p79
F5.8471899032592773
sS'body_h'
p80
F-24
sS'body_r'
p81
F0
sS'body_p'
p82
F0
sS'in_right_hand'
p83
S''
sS'in_left_hand'
p84
S''
sS'neck_h'
p85
F-0
ssS'objects'
p86
(dp87
S'toaster_with_bread'
p88
(dp89
S'distance'
p90
F10.800105094909668
sS'y_pos'
p91
F0.60576969385147095
sS'orientation'
p92
F-156.0029296875
sS'x_pos'
p93
F-0.052884507924318314
sS'area'
p94
F1.6030047886084198
ssS'piece_of_toast'
p95
(dp96
S'distance'
p97
F9.4619922637939453
sS'y_pos'
p98
F0.016724634915590286
sS'orientation'
p99
F-156.0029296875
sS'x_pos'
p100
F-0.10053817555308342
sS'area'
p101
F1.3187500009221031
sssS'vision'
p102
(lp103
sS'language'
p104
(lp105
stp106
a(I0
(dp107
S'position'
p108
(dp109
S'neck_r'
p110
F-0
sS'neck_p'
p111
F0
sS'body_z'
p112
F2.970947265625
sS'body_y'
p113
F1.485129714012146
sS'body_x'
p114
F5.8268532752990723
sS'body_h'
p115
F-24
sS'body_r'
p116
F0
sS'body_p'
p117
F0
sS'in_right_hand'
p118
S''
sS'in_left_hand'
p119
S''
sS'neck_h'
p120
F-0
ssS'objects'
p121
(dp122
S'toaster_with_bread'
p123
(dp124
S'distance'
p125
F10.551162719726562
sS'y_pos'
p126
F0.6145862340927124
sS'orientation'
p127
F-156
sS'x_pos'
p128
F-0.049028586596250534
sS'area'
p129
F1.6951509462277414
ssS'piece_of_toast'
p130
(dp131
S'distance'
p132
F9.2129364013671875
sS'y_pos'
p133
F0.011483918875455856
sS'orientation'
p134
F-156
sS'x_pos'
p135
F-0.10594013892114162
sS'area'
p136
F1.4050411108686793
sssS'vision'
p137
(lp138
sS'language'
p139
(lp140
stp141
a(I0
(dp142
S'position'
p143
(dp144
S'neck_r'
p145
F-0
sS'neck_p'
p146
F0
sS'body_z'
p147
F2.97723388671875
sS'body_y'
p148
F1.3024206161499023
sS'body_x'
p149
F5.7455062866210938
sS'body_h'
p150
F-24
sS'body_r'
p151
F0
sS'body_p'
p152
F0
sS'in_right_hand'
p153
S''
sS'in_left_hand'
p154
S''
sS'neck_h'
p155
F-0
ssS'objects'
p156
(dp157
S'toaster_with_bread'
p158
(dp159
S'distance'
p160
F9.5527124404907227
sS'y_pos'
p161
F0.65105512738227844
sS'orientation'
p162
F-156.0538330078125
sS'x_pos'
p163
F-0.023494159802794456
sS'area'
p164
F2.1392133219791942
ssS'piece_of_toast'
p165
(dp166
S'distance'
p167
F8.2143487930297852
sS'y_pos'
p168
F-0.014057151973247528
sS'orientation'
p169
F-156.0538330078125
sS'x_pos'
p170
F-0.12441613897681236
sS'area'
p171
F1.8229821805256452
sssS'vision'
p172
(lp173
sS'language'
p174
(lp175
stp176
a(I0
(dp177
S'position'
p178
(dp179
S'neck_r'
p180
F-0
sS'neck_p'
p181
F0
sS'body_z'
p182
F2.983551025390625
sS'body_y'
p183
F1.1187098026275635
sS'body_x'
p184
F5.6665773391723633
sS'body_h'
p185
F-21
sS'body_r'
p186
F0
sS'body_p'
p187
F0
sS'in_right_hand'
p188
S''
sS'in_left_hand'
p189
S''
sS'neck_h'
p190
F-0
ssS'objects'
p191
(dp192
S'toaster_with_bread'
p193
(dp194
S'distance'
p195
F8.6208982467651367
sS'y_pos'
p196
F0.87924501299858093
sS'orientation'
p197
F-159.0484619140625
sS'x_pos'
p198
F-0.025886660441756248
sS'area'
p199
F2.587837731892173
ssS'piece_of_toast'
p200
(dp201
S'distance'
p202
F7.2361617088317871
sS'y_pos'
p203
F0.12040704116225243
sS'orientation'
p204
F-159.0484619140625
sS'x_pos'
p205
F-0.14181652292609215
sS'area'
p206
F2.3157581486031029
sssS'vision'
p207
(lp208
sS'language'
p209
(lp210
stp211
a(I0
(dp212
S'position'
p213
(dp214
S'neck_r'
p215
F-0
sS'neck_p'
p216
F0
sS'body_z'
p217
F2.983551025390625
sS'body_y'
p218
F1.1187098026275635
sS'body_x'
p219
F5.6665773391723633
sS'body_h'
p220
F-9
sS'body_r'
p221
F0
sS'body_p'
p222
F0
sS'in_right_hand'
p223
S''
sS'in_left_hand'
p224
S''
sS'neck_h'
p225
F-0
ssS'objects'
p226
(dp227
S'piece_of_toast'
p228
(dp229
S'distance'
p230
F7.3539495468139648
sS'y_pos'
p231
F0.70166617631912231
sS'orientation'
p232
F-171.001220703125
sS'x_pos'
p233
F-0.16191303730010986
sS'area'
p234
F2.3837583377169125
sssS'vision'
p235
(lp236
sS'language'
p237
(lp238
stp239
a(I0
(dp240
S'position'
p241
(dp242
S'neck_r'
p243
F-0
sS'neck_p'
p244
F0
sS'body_z'
p245
F2.983551025390625
sS'body_y'
p246
F1.1187098026275635
sS'body_x'
p247
F5.6665773391723633
sS'body_h'
p248
F3
sS'body_r'
p249
F0
sS'body_p'
p250
F0
sS'in_right_hand'
p251
S''
sS'in_left_hand'
p252
S''
sS'neck_h'
p253
F-0
ssS'objects'
p254
(dp255
sS'vision'
p256
(lp257
sS'language'
p258
(lp259
stp260
a(I0
(dp261
S'position'
p262
(dp263
S'neck_r'
p264
F-0
sS'neck_p'
p265
F0
sS'body_z'
p266
F2.9766845703125
sS'body_y'
p267
F1.3184357881546021
sS'body_x'
p268
F5.6561098098754883
sS'body_h'
p269
F3
sS'body_r'
p270
F0
sS'body_p'
p271
F0
sS'in_right_hand'
p272
S''
sS'in_left_hand'
p273
S''
sS'neck_h'
p274
F-0
ssS'objects'
p275
(dp276
S'piece_of_toast'
p277
(dp278
S'distance'
p279
F8.2622766494750977
sS'y_pos'
p280
F1.1099992990493774
sS'orientation'
p281
F177.00445556640625
sS'x_pos'
p282
F-0.09222749900072813
sS'area'
p283
F2.5457857178541321
sssS'vision'
p284
(lp285
sS'language'
p286
(lp287
stp288
a(I0
(dp289
S'position'
p290
(dp291
S'neck_r'
p292
F-0
sS'neck_p'
p293
F0
sS'body_z'
p294
F2.969818115234375
sS'body_y'
p295
F1.5181617736816406
sS'body_x'
p296
F5.6456422805786133
sS'body_h'
p297
F3
sS'body_r'
p298
F0
sS'body_p'
p299
F0
sS'in_right_hand'
p300
S''
sS'in_left_hand'
p301
S''
sS'neck_h'
p302
F-0
ssS'objects'
p303
(dp304
S'piece_of_toast'
p305
(dp306
S'distance'
p307
F9.1247768402099609
sS'y_pos'
p308
F0.96525442600250244
sS'orientation'
p309
F177.01025390625
sS'x_pos'
p310
F-0.052541679469868541
sS'area'
p311
F2.0792195902651467
sssS'vision'
p312
(lp313
sS'language'
p314
(lp315
stp316
a(I0
(dp317
S'position'
p318
(dp319
S'neck_r'
p320
F-0
sS'neck_p'
p321
F0
sS'body_z'
p322
F2.9664154052734375
sS'body_y'
p323
F1.6169306039810181
sS'body_x'
p324
F5.6299986839294434
sS'body_h'
p325
F12
sS'body_r'
p326
F0
sS'body_p'
p327
F0
sS'in_right_hand'
p328
S''
sS'in_left_hand'
p329
S''
sS'neck_h'
p330
F-0
ssS'objects'
p331
(dp332
sS'vision'
p333
(lp334
sS'language'
p335
(lp336
stp337
a(I0
(dp338
S'position'
p339
(dp340
S'neck_r'
p341
F-0
sS'neck_p'
p342
F0
sS'body_z'
p343
F2.964813232421875
sS'body_y'
p344
F1.6636096239089966
sS'body_x'
p345
F5.6120800971984863
sS'body_h'
p346
F21
sS'body_r'
p347
F0
sS'body_p'
p348
F0
sS'in_right_hand'
p349
S''
sS'in_left_hand'
p350
S''
sS'neck_h'
p351
F-0
ssS'objects'
p352
(dp353
sS'vision'
p354
(lp355
sS'language'
p356
(lp357
stp358
a(I0
(dp359
S'position'
p360
(dp361
S'neck_r'
p362
F-0
sS'neck_p'
p363
F0
sS'body_z'
p364
F2.9600067138671875
sS'body_y'
p365
F1.8036466836929321
sS'body_x'
p366
F5.5583248138427734
sS'body_h'
p367
F21
sS'body_r'
p368
F0
sS'body_p'
p369
F0
sS'in_right_hand'
p370
S''
sS'in_left_hand'
p371
S''
sS'neck_h'
p372
F-0
ssS'objects'
p373
(dp374
sS'vision'
p375
(lp376
sS'language'
p377
(lp378
stp379
a(I0
(dp380
S'position'
p381
(dp382
S'neck_r'
p383
F-0
sS'neck_p'
p384
F0
sS'body_z'
p385
F2.953277587890625
sS'body_y'
p386
F1.9985311031341553
sS'body_x'
p387
F5.514225959777832
sS'body_h'
p388
F9
sS'body_r'
p389
F0
sS'body_p'
p390
F0
sS'in_right_hand'
p391
S''
sS'in_left_hand'
p392
S''
sS'neck_h'
p393
F-0
ssS'objects'
p394
(dp395
S'piece_of_toast'
p396
(dp397
S'distance'
p398
F11.234968185424805
sS'y_pos'
p399
F0.91776320338249207
sS'orientation'
p400
F171.03034973144531
sS'x_pos'
p401
F-0.019992893561720848
sS'area'
p402
F1.5301490864196188
sssS'vision'
p403
(lp404
sS'language'
p405
(lp406
stp407
a(I0
(dp408
S'position'
p409
(dp410
S'neck_r'
p411
F-0
sS'neck_p'
p412
F0
sS'body_z'
p413
F2.9481964111328125
sS'body_y'
p414
F2.1466844081878662
sS'body_x'
p415
F5.4907608032226562
sS'body_h'
p416
F9
sS'body_r'
p417
F0
sS'body_p'
p418
F0
sS'in_right_hand'
p419
S''
sS'in_left_hand'
p420
S''
sS'neck_h'
p421
F-0
ssS'objects'
p422
(dp423
S'piece_of_toast'
p424
(dp425
S'distance'
p426
F11.958699226379395
sS'y_pos'
p427
F0.87292918562889099
sS'orientation'
p428
F171.00558471679688
sS'x_pos'
p429
F-0.046819036157103255
sS'area'
p430
F1.3703821656167059
sssS'vision'
p431
(lp432
sS'language'
p433
(lp434
stp435
a(I0
(dp436
S'position'
p437
(dp438
S'neck_r'
p439
F-0
sS'neck_p'
p440
F0
sS'body_z'
p441
F2.9413909912109375
sS'body_y'
p442
F2.3442220687866211
sS'body_x'
p443
F5.4594740867614746
sS'body_h'
p444
F9
sS'body_r'
p445
F0
sS'body_p'
p446
F0
sS'in_right_hand'
p447
S''
sS'in_left_hand'
p448
S''
sS'neck_h'
p449
F-0
ssS'objects'
p450
(dp451
S'piece_of_toast'
p452
(dp453
S'distance'
p454
F12.932567596435547
sS'y_pos'
p455
F0.8213772177696228
sS'orientation'
p456
F171.00558471679688
sS'x_pos'
p457
F-0.078543255105614662
sS'area'
p458
F1.1835413422751628
sssS'vision'
p459
(lp460
sS'language'
p461
(lp462
stp463
a(I0
(dp464
S'position'
p465
(dp466
S'neck_r'
p467
F-0
sS'neck_p'
p468
F0
sS'body_z'
p469
F2.9413909912109375
sS'body_y'
p470
F2.3442220687866211
sS'body_x'
p471
F5.4594740867614746
sS'body_h'
p472
F15
sS'body_r'
p473
F0
sS'body_p'
p474
F0
sS'in_right_hand'
p475
S''
sS'in_left_hand'
p476
S''
sS'neck_h'
p477
F-0
ssS'objects'
p478
(dp479
S'piece_of_toast'
p480
(dp481
S'distance'
p482
F12.980199813842773
sS'y_pos'
p483
F1.1114544272422791
sS'orientation'
p484
F165.00196838378906
sS'x_pos'
p485
F-0.074830223806202412
sS'area'
p486
F1.3463945609797134
sssS'vision'
p487
(lp488
sS'language'
p489
(lp490
stp491
a(I0
(dp492
S'position'
p493
(dp494
S'neck_r'
p495
F-0
sS'neck_p'
p496
F0
sS'body_z'
p497
F2.9480438232421875
sS'body_y'
p498
F2.1510369777679443
sS'body_x'
p499
F5.511237621307373
sS'body_h'
p500
F15
sS'body_r'
p501
F0
sS'body_p'
p502
F0
sS'in_right_hand'
p503
S''
sS'in_left_hand'
p504
S''
sS'neck_h'
p505
F-0
ssS'objects'
p506
(dp507
S'piece_of_toast'
p508
(dp509
S'distance'
p510
F12.038335800170898
sS'y_pos'
p511
F1.1908697485923767
sS'orientation'
p512
F165.02130126953125
sS'x_pos'
p513
F-0.023965863510966301
sS'area'
p514
F1.5534350563851884
sssS'vision'
p515
(lp516
sS'language'
p517
(lp518
stp519
a(I0
(dp520
S'position'
p521
(dp522
S'neck_r'
p523
F-0
sS'neck_p'
p524
F0
sS'body_z'
p525
F2.954681396484375
sS'body_y'
p526
F1.957851767539978
sS'body_x'
p527
F5.5630011558532715
sS'body_h'
p528
F15
sS'body_r'
p529
F0
sS'body_p'
p530
F0
sS'in_right_hand'
p531
S''
sS'in_left_hand'
p532
S''
sS'neck_h'
p533
F-0
ssS'objects'
p534
(dp535
sS'vision'
p536
(lp537
sS'language'
p538
(lp539
stp540
a(I0
(dp541
S'position'
p542
(dp543
S'neck_r'
p544
F-0
sS'neck_p'
p545
F0
sS'body_z'
p546
F2.9596710205078125
sS'body_y'
p547
F1.8129628896713257
sS'body_x'
p548
F5.6018238067626953
sS'body_h'
p549
F15
sS'body_r'
p550
F0
sS'body_p'
p551
F0
sS'in_right_hand'
p552
S''
sS'in_left_hand'
p553
S''
sS'neck_h'
p554
F-0
ssS'objects'
p555
(dp556
sS'vision'
p557
(lp558
sS'language'
p559
(lp560
stp561
a(I0
(dp562
S'position'
p563
(dp564
S'neck_r'
p565
F-0
sS'neck_p'
p566
F0
sS'body_z'
p567
F2.9596710205078125
sS'body_y'
p568
F1.8129628896713257
sS'body_x'
p569
F5.6018238067626953
sS'body_h'
p570
F6
sS'body_r'
p571
F0
sS'body_p'
p572
F0
sS'in_right_hand'
p573
S''
sS'in_left_hand'
p574
S''
sS'neck_h'
p575
F-0
ssS'objects'
p576
(dp577
S'piece_of_toast'
p578
(dp579
S'distance'
p580
F10.527945518493652
sS'y_pos'
p581
F0.96806919574737549
sS'orientation'
p582
F174.00082397460938
sS'x_pos'
p583
F-0.10160067304968834
sS'area'
p584
F1.6831865774401322
sssS'vision'
p585
(lp586
sS'language'
p587
(lp588
stp589
a(I0
(dp590
S'position'
p591
(dp592
S'neck_r'
p593
F-0
sS'neck_p'
p594
F0
sS'body_z'
p595
F2.9613800048828125
sS'body_y'
p596
F1.7630313634872437
sS'body_x'
p597
F5.5992069244384766
sS'body_h'
p598
F-3
sS'body_r'
p599
F0
sS'body_p'
p600
F0
sS'in_right_hand'
p601
S''
sS'in_left_hand'
p602
S''
sS'neck_h'
p603
F-0
ssS'objects'
p604
(dp605
S'toaster_with_bread'
p606
(dp607
S'distance'
p608
F11.227970123291016
sS'y_pos'
p609
F1.2169157862663269
sS'orientation'
p610
F-177.00001525878906
sS'x_pos'
p611
F-0.043200079351663589
sS'area'
p612
F2.6905357176469913
ssS'piece_of_toast'
p613
(dp614
S'distance'
p615
F10.443662643432617
sS'y_pos'
p616
F0.54495005309581757
sS'orientation'
p617
F-177.00042724609375
sS'x_pos'
p618
F-0.092034677043557167
sS'area'
p619
F1.454431369355802
sssS'vision'
p620
(lp621
sS'language'
p622
(lp623
stp624
a(I0
(dp625
S'position'
p626
(dp627
S'neck_r'
p628
F-0
sS'neck_p'
p629
F0
sS'body_z'
p630
F2.966552734375
sS'body_y'
p631
F1.6132369041442871
sS'body_x'
p632
F5.5913562774658203
sS'body_h'
p633
F-3
sS'body_r'
p634
F0
sS'body_p'
p635
F0
sS'in_right_hand'
p636
S''
sS'in_left_hand'
p637
S''
sS'neck_h'
p638
F-0
ssS'objects'
p639
(dp640
S'piece_of_toast'
p641
(dp642
S'distance'
p643
F9.4505443572998047
sS'y_pos'
p644
F0.57883180677890778
sS'orientation'
p645
F-177.00447082519531
sS'x_pos'
p646
F-0.078065651468932629
sS'area'
p647
F1.7604148022961785
sssS'vision'
p648
(lp649
sS'language'
p650
(lp651
stp652
a(I0
(dp653
S'position'
p654
(dp655
S'neck_r'
p656
F-0
sS'neck_p'
p657
F0
sS'body_z'
p658
F2.97161865234375
sS'body_y'
p659
F1.4656959772109985
sS'body_x'
p660
F5.5653386116027832
sS'body_h'
p661
F-15
sS'body_r'
p662
F0
sS'body_p'
p663
F0
sS'in_right_hand'
p664
S''
sS'in_left_hand'
p665
S''
sS'neck_h'
p666
F-0
ssS'objects'
p667
(dp668
S'toaster_with_bread'
p669
(dp670
S'distance'
p671
F9.7813806533813477
sS'y_pos'
p672
F0.79074245691299438
sS'orientation'
p673
F-165.00198364257812
sS'x_pos'
p674
F-0.063213701359927654
sS'area'
p675
F2.5520315702550089
ssS'piece_of_toast'
p676
(dp677
S'distance'
p678
F8.6624612808227539
sS'y_pos'
p679
F0.098896726965904236
sS'orientation'
p680
F-165.00198364257812
sS'x_pos'
p681
F-0.11276548728346825
sS'area'
p682
F1.8602345275691157
sssS'vision'
p683
(lp684
sS'language'
p685
(lp686
stp687
a(I0
(dp688
S'position'
p689
(dp690
S'neck_r'
p691
F-0
sS'neck_p'
p692
F0
sS'body_z'
p693
F2.97161865234375
sS'body_y'
p694
F1.4656959772109985
sS'body_x'
p695
F5.5653386116027832
sS'body_h'
p696
F-24
sS'body_r'
p697
F0
sS'body_p'
p698
F0
sS'in_right_hand'
p699
S''
sS'in_left_hand'
p700
S''
sS'neck_h'
p701
F-0
ssS'objects'
p702
(dp703
S'toaster_with_bread'
p704
(dp705
S'distance'
p706
F9.7057046890258789
sS'y_pos'
p707
F0.38090477883815765
sS'orientation'
p708
F-156.0029296875
sS'x_pos'
p709
F-0.05589078925549984
sS'area'
p710
F2.3174743041607271
ssS'piece_of_toast'
p711
(dp712
S'distance'
p713
F8.6106319427490234
sS'y_pos'
p714
F-0.29443134367465973
sS'orientation'
p715
F-156.0029296875
sS'x_pos'
p716
F-0.10893449187278748
sS'area'
p717
F1.9315512934311663
ssS'knife'
p718
(dp719
S'distance'
p720
F10.604128837585449
sS'y_pos'
p721
F1.1084765791893005
sS'orientation'
p722
F-156.0029296875
sS'x_pos'
p723
F-0.15853087604045868
sS'area'
p724
F0.99691530260130889
sssS'vision'
p725
(lp726
sS'language'
p727
(lp728
stp729
a(I0
(dp730
S'position'
p731
(dp732
S'neck_r'
p733
F-0
sS'neck_p'
p734
F0
sS'body_z'
p735
F2.9763336181640625
sS'body_y'
p736
F1.3286641836166382
sS'body_x'
p737
F5.5043282508850098
sS'body_h'
p738
F-24
sS'body_r'
p739
F0
sS'body_p'
p740
F0
sS'in_right_hand'
p741
S''
sS'in_left_hand'
p742
S''
sS'neck_h'
p743
F-0
ssS'objects'
p744
(dp745
S'toaster_with_bread'
p746
(dp747
S'distance'
p748
F8.9517784118652344
sS'y_pos'
p749
F0.39095285534858704
sS'orientation'
p750
F-156.01345825195312
sS'x_pos'
p751
F-0.050974927842617035
sS'area'
p752
F2.7720572030927038
ssS'piece_of_toast'
p753
(dp754
S'distance'
p755
F7.8790292739868164
sS'y_pos'
p756
F-0.34345699846744537
sS'orientation'
p757
F-156.01345825195312
sS'x_pos'
p758
F-0.13945414125919342
sS'area'
p759
F2.3632942498923448
sssS'vision'
p760
(lp761
sS'language'
p762
(lp763
stp764
a(I0
(dp765
S'position'
p766
(dp767
S'neck_r'
p768
F-0
sS'neck_p'
p769
F0
sS'body_z'
p770
F2.981048583984375
sS'body_y'
p771
F1.1916323900222778
sS'body_x'
p772
F5.4433178901672363
sS'body_h'
p773
F-24
sS'body_r'
p774
F0
sS'body_p'
p775
F0
sS'in_right_hand'
p776
S''
sS'in_left_hand'
p777
S''
sS'neck_h'
p778
F-0
ssS'objects'
p779
(dp780
S'toaster_with_bread'
p781
(dp782
S'distance'
p783
F8.1987457275390625
sS'y_pos'
p784
F0.40426622331142426
sS'orientation'
p785
F-156.07301330566406
sS'x_pos'
p786
F-0.043654073029756546
sS'area'
p787
F3.321480684379341
ssS'piece_of_toast'
p788
(dp789
S'distance'
p790
F7.1490731239318848
sS'y_pos'
p791
F-0.39979276061058044
sS'orientation'
p792
F-156.07301330566406
sS'x_pos'
p793
F-0.17143506556749344
sS'area'
p794
F2.9064885204031832
sssS'vision'
p795
(lp796
sS'language'
p797
(lp798
stp799
a(I0
(dp800
S'position'
p801
(dp802
S'neck_r'
p803
F-0
sS'neck_p'
p804
F0
sS'body_z'
p805
F2.98419189453125
sS'body_y'
p806
F1.1002779006958008
sS'body_x'
p807
F5.402644157409668
sS'body_h'
p808
F-24
sS'body_r'
p809
F0
sS'body_p'
p810
F0
sS'in_right_hand'
p811
S''
sS'in_left_hand'
p812
S''
sS'neck_h'
p813
F-0
ssS'objects'
p814
(dp815
S'toaster_with_bread'
p816
(dp817
S'distance'
p818
F7.7083396911621094
sS'y_pos'
p819
F0.43104690313339233
sS'orientation'
p820
F-156.07301330566406
sS'x_pos'
p821
F-0.049745596945285797
sS'area'
p822
F3.6844736141713241
ssS'piece_of_toast'
p823
(dp824
S'distance'
p825
F6.6586589813232422
sS'y_pos'
p826
F-0.43043570220470428
sS'orientation'
p827
F-156.07301330566406
sS'x_pos'
p828
F-0.18843237683176994
sS'area'
p829
F3.3705225394827787
sssS'vision'
p830
(lp831
sS'language'
p832
(lp833
stp834
a(I0
(dp835
S'position'
p836
(dp837
S'neck_r'
p838
F-0
sS'neck_p'
p839
F0
sS'body_z'
p840
F2.9873199462890625
sS'body_y'
p841
F1.0089234113693237
sS'body_x'
p842
F5.3619704246520996
sS'body_h'
p843
F-24
sS'body_r'
p844
F0
sS'body_p'
p845
F0
sS'in_right_hand'
p846
S''
sS'in_left_hand'
p847
S''
sS'neck_h'
p848
F-0
ssS'objects'
p849
(dp850
S'toaster_with_bread'
p851
(dp852
S'distance'
p853
F7.2306952476501465
sS'y_pos'
p854
F0.47720646858215332
sS'orientation'
p855
F-156.03167724609375
sS'x_pos'
p856
F-0.068109306506812572
sS'area'
p857
F4.0036995451304014
ssS'piece_of_toast'
p858
(dp859
S'distance'
p860
F6.163813591003418
sS'y_pos'
p861
F-0.45304307341575623
sS'orientation'
p862
F-156.03167724609375
sS'x_pos'
p863
F-0.20021131634712219
sS'area'
p864
F3.9642454394549276
sssS'vision'
p865
(lp866
sS'language'
p867
(lp868
stp869
a(I0
(dp870
S'position'
p871
(dp872
S'neck_r'
p873
F-0
sS'neck_p'
p874
F0
sS'body_z'
p875
F2.990447998046875
sS'body_y'
p876
F0.9175688624382019
sS'body_x'
p877
F5.3212966918945312
sS'body_h'
p878
F-24
sS'body_r'
p879
F0
sS'body_p'
p880
F0
sS'in_right_hand'
p881
S''
sS'in_left_hand'
p882
S''
sS'neck_h'
p883
F-0
ssS'objects'
p884
(dp885
S'toaster_with_bread'
p886
(dp887
S'distance'
p888
F6.7606682777404785
sS'y_pos'
p889
F0.53486382961273193
sS'orientation'
p890
F-156.0029296875
sS'x_pos'
p891
F-0.092658365610986948
sS'area'
p892
F4.2788788712547206
ssS'piece_of_toast'
p893
(dp894
S'distance'
p895
F5.6674456596374512
sS'y_pos'
p896
F-0.47511450946331024
sS'orientation'
p897
F-156.0029296875
sS'x_pos'
p898
F-0.20998451113700867
sS'area'
p899
F4.7196115691479079
sssS'vision'
p900
(lp901
sS'language'
p902
(lp903
stp904
a(I0
(dp905
S'position'
p906
(dp907
S'neck_r'
p908
F-0
sS'neck_p'
p909
F0
sS'body_z'
p910
F2.9904632568359375
sS'body_y'
p911
F0.9175688624382019
sS'body_x'
p912
F5.3212966918945312
sS'body_h'
p913
F-24
sS'body_r'
p914
F0
sS'body_p'
p915
F0
sS'in_right_hand'
p916
S''
sS'in_left_hand'
p917
S''
sS'neck_h'
p918
F-0
ssS'objects'
p919
(dp920
S'toaster_with_bread'
p921
(dp922
S'distance'
p923
F6.7745614051818848
sS'y_pos'
p924
F0.55279126763343811
sS'orientation'
p925
F-156.0029296875
sS'x_pos'
p926
F-0.10359104909002781
sS'area'
p927
F4.0940286452514352
ssS'piece_of_toast'
p928
(dp929
S'distance'
p930
F5.6580386161804199
sS'y_pos'
p931
F-0.45781396329402924
sS'orientation'
p932
F-156.0029296875
sS'x_pos'
p933
F-0.1953488253057003
sS'area'
p934
F4.7049294787268048
sssS'vision'
p935
(lp936
sS'language'
p937
(lp938
stp939
a(I0
(dp940
S'position'
p941
(dp942
S'neck_r'
p943
F-0
sS'neck_p'
p944
F0
sS'body_z'
p945
F2.990447998046875
sS'body_y'
p946
F0.9175688624382019
sS'body_x'
p947
F5.3212966918945312
sS'body_h'
p948
F-24
sS'body_r'
p949
F0
sS'body_p'
p950
F0
sS'in_right_hand'
p951
S''
sS'in_left_hand'
p952
S''
sS'neck_h'
p953
F-0
ssS'objects'
p954
(dp955
S'toaster_with_bread'
p956
(dp957
S'distance'
p958
F6.7745561599731445
sS'y_pos'
p959
F0.55279257893562317
sS'orientation'
p960
F-156.0029296875
sS'x_pos'
p961
F-0.10357077000662684
sS'area'
p962
F4.0940894562603916
ssS'piece_of_toast'
p963
(dp964
S'distance'
p965
F5.6580266952514648
sS'y_pos'
p966
F-0.4578123539686203
sS'orientation'
p967
F-156.0029296875
sS'x_pos'
p968
F-0.19532489776611328
sS'area'
p969
F4.705008764079821
sssS'vision'
p970
(lp971
sS'language'
p972
(lp973
stp974
a(I0
(dp975
S'position'
p976
(dp977
S'neck_r'
p978
F-0
sS'neck_p'
p979
F0
sS'body_z'
p980
F2.9929656982421875
sS'body_y'
p981
F0.82621431350708008
sS'body_x'
p982
F5.2806229591369629
sS'body_h'
p983
F-24
sS'body_r'
p984
F0
sS'body_p'
p985
F0
sS'in_right_hand'
p986
S''
sS'in_left_hand'
p987
S''
sS'neck_h'
p988
F-0
ssS'objects'
p989
(dp990
S'toaster_with_bread'
p991
(dp992
S'distance'
p993
F6.2773046493530273
sS'y_pos'
p994
F0.57865476608276367
sS'orientation'
p995
F-156.0029296875
sS'x_pos'
p996
F-0.10318155027925968
sS'area'
p997
F4.783983546661208
ssS'piece_of_toast'
p998
(dp999
S'distance'
p1000
F5.1811995506286621
sS'y_pos'
p1001
F-0.52332870662212372
sS'orientation'
p1002
F-156.0029296875
sS'x_pos'
p1003
F-0.23461136221885681
sS'area'
p1004
F5.7254208635740156
sssS'vision'
p1005
(lp1006
sS'language'
p1007
(lp1008
stp1009
a(I1
(dp1010
S'position'
p1011
(dp1012
S'neck_r'
p1013
F-0
sS'neck_p'
p1014
F0
sS'body_z'
p1015
F2.9954833984375
sS'body_y'
p1016
F0.73485976457595825
sS'body_x'
p1017
F5.2399492263793945
sS'body_h'
p1018
F-24
sS'body_r'
p1019
F0
sS'body_p'
p1020
F0
sS'in_right_hand'
p1021
S''
sS'in_left_hand'
p1022
S''
sS'neck_h'
p1023
F-0
ssS'objects'
p1024
(dp1025
S'toaster_with_bread'
p1026
(dp1027
S'distance'
p1028
F5.7774600982666016
sS'y_pos'
p1029
F0.60528108477592468
sS'orientation'
p1030
F-156.03167724609375
sS'x_pos'
p1031
F-0.096806342713534832
sS'area'
p1032
F5.6739821697241339
ssS'piece_of_toast'
p1033
(dp1034
S'distance'
p1035
F4.708704948425293
sS'y_pos'
p1036
F-0.60579010844230652
sS'orientation'
p1037
F-156.03167724609375
sS'x_pos'
p1038
F-0.2801903560757637
sS'area'
p1039
F7.0468492481883693
sssS'vision'
p1040
(lp1041
sS'language'
p1042
(lp1043
stp1044
a.